(lp0
(dp1
S'name'
p2
S'Root'
p3
sS'x_orig'
p4
F30.0
sS'x_off'
p5
I47
sS'lines'
p6
(lp7
(lp8
I4
aI1
aI2
aasS'y_orig'
p9
F20.0
sS'id'
p10
I1
sS'y_off'
p11
I18
sa(dp12
g2
S'GoToPos'
p13
sg4
F53.0
sg5
I44
sg6
(lp14
(lp15
I4
aI1
aI2
aasg9
F150.0
sg10
I2
sg11
I25
sa.